; ModuleID = '12/1079.c'
source_filename = "12/1079.c"
target datalayout = "e-m:e-p270:32:32-p271:32:32-p272:64:64-i64:64-f80:128-n8:16:32:64-S128"
target triple = "x86_64-pc-linux-gnu"

@.str = private unnamed_addr constant [3 x i8] c"%d\00", align 1
@.str.1 = private unnamed_addr constant [4 x i8] c"%d\0A\00", align 1

; Function Attrs: noinline nounwind uwtable
define dso_local i32 @main() #0 {
  %1 = alloca i32, align 4
  %2 = alloca [100 x [16 x i32]], align 16
  %3 = alloca [100 x i32], align 16
  %4 = alloca float, align 4
  %5 = alloca i32, align 4
  %6 = alloca i32, align 4
  %7 = alloca i32, align 4
  store i32 0, i32* %1, align 4
  %8 = bitcast [100 x i32]* %3 to i8*
  call void @llvm.memset.p0i8.i64(i8* align 16 %8, i8 0, i64 400, i1 false)
  store i32 0, i32* %6, align 4
  br label %9

9:                                                ; preds = %46, %0
  %10 = load i32, i32* %6, align 4
  %11 = icmp slt i32 %10, 100
  br i1 %11, label %12, label %49

12:                                               ; preds = %9
  store i32 0, i32* %5, align 4
  br label %13

13:                                               ; preds = %42, %12
  %14 = load i32, i32* %5, align 4
  %15 = icmp slt i32 %14, 16
  br i1 %15, label %16, label %45

16:                                               ; preds = %13
  %17 = load i32, i32* %6, align 4
  %18 = sext i32 %17 to i64
  %19 = getelementptr inbounds [100 x [16 x i32]], [100 x [16 x i32]]* %2, i64 0, i64 %18
  %20 = load i32, i32* %5, align 4
  %21 = sext i32 %20 to i64
  %22 = getelementptr inbounds [16 x i32], [16 x i32]* %19, i64 0, i64 %21
  %23 = call i32 (i8*, ...) @__isoc99_scanf(i8* getelementptr inbounds ([3 x i8], [3 x i8]* @.str, i64 0, i64 0), i32* %22)
  %24 = load i32, i32* %6, align 4
  %25 = sext i32 %24 to i64
  %26 = getelementptr inbounds [100 x [16 x i32]], [100 x [16 x i32]]* %2, i64 0, i64 %25
  %27 = getelementptr inbounds [16 x i32], [16 x i32]* %26, i64 0, i64 0
  %28 = load i32, i32* %27, align 16
  %29 = icmp eq i32 %28, -1
  br i1 %29, label %30, label %31

30:                                               ; preds = %16
  br label %50

31:                                               ; preds = %16
  %32 = load i32, i32* %6, align 4
  %33 = sext i32 %32 to i64
  %34 = getelementptr inbounds [100 x [16 x i32]], [100 x [16 x i32]]* %2, i64 0, i64 %33
  %35 = load i32, i32* %5, align 4
  %36 = sext i32 %35 to i64
  %37 = getelementptr inbounds [16 x i32], [16 x i32]* %34, i64 0, i64 %36
  %38 = load i32, i32* %37, align 4
  %39 = icmp eq i32 %38, 0
  br i1 %39, label %40, label %41

40:                                               ; preds = %31
  br label %45

41:                                               ; preds = %31
  br label %42

42:                                               ; preds = %41
  %43 = load i32, i32* %5, align 4
  %44 = add nsw i32 %43, 1
  store i32 %44, i32* %5, align 4
  br label %13

45:                                               ; preds = %40, %13
  br label %46

46:                                               ; preds = %45
  %47 = load i32, i32* %6, align 4
  %48 = add nsw i32 %47, 1
  store i32 %48, i32* %6, align 4
  br label %9

49:                                               ; preds = %9
  br label %50

50:                                               ; preds = %49, %30
  store i32 0, i32* %6, align 4
  br label %51

51:                                               ; preds = %144, %50
  %52 = load i32, i32* %6, align 4
  %53 = icmp slt i32 %52, 100
  br i1 %53, label %54, label %147

54:                                               ; preds = %51
  %55 = load i32, i32* %6, align 4
  %56 = sext i32 %55 to i64
  %57 = getelementptr inbounds [100 x [16 x i32]], [100 x [16 x i32]]* %2, i64 0, i64 %56
  %58 = getelementptr inbounds [16 x i32], [16 x i32]* %57, i64 0, i64 0
  %59 = load i32, i32* %58, align 16
  %60 = icmp ne i32 %59, -1
  br i1 %60, label %61, label %135

61:                                               ; preds = %54
  store i32 0, i32* %5, align 4
  br label %62

62:                                               ; preds = %126, %61
  %63 = load i32, i32* %5, align 4
  %64 = icmp slt i32 %63, 16
  br i1 %64, label %65, label %129

65:                                               ; preds = %62
  %66 = load i32, i32* %6, align 4
  %67 = sext i32 %66 to i64
  %68 = getelementptr inbounds [100 x [16 x i32]], [100 x [16 x i32]]* %2, i64 0, i64 %67
  %69 = load i32, i32* %5, align 4
  %70 = sext i32 %69 to i64
  %71 = getelementptr inbounds [16 x i32], [16 x i32]* %68, i64 0, i64 %70
  %72 = load i32, i32* %71, align 4
  %73 = icmp eq i32 %72, 0
  br i1 %73, label %74, label %75

74:                                               ; preds = %65
  br label %129

75:                                               ; preds = %65
  store i32 0, i32* %7, align 4
  br label %76

76:                                               ; preds = %122, %75
  %77 = load i32, i32* %7, align 4
  %78 = icmp slt i32 %77, 16
  br i1 %78, label %79, label %125

79:                                               ; preds = %76
  %80 = load i32, i32* %6, align 4
  %81 = sext i32 %80 to i64
  %82 = getelementptr inbounds [100 x [16 x i32]], [100 x [16 x i32]]* %2, i64 0, i64 %81
  %83 = load i32, i32* %7, align 4
  %84 = sext i32 %83 to i64
  %85 = getelementptr inbounds [16 x i32], [16 x i32]* %82, i64 0, i64 %84
  %86 = load i32, i32* %85, align 4
  %87 = icmp eq i32 %86, 0
  br i1 %87, label %88, label %89

88:                                               ; preds = %79
  br label %125

89:                                               ; preds = %79
  %90 = load i32, i32* %6, align 4
  %91 = sext i32 %90 to i64
  %92 = getelementptr inbounds [100 x [16 x i32]], [100 x [16 x i32]]* %2, i64 0, i64 %91
  %93 = load i32, i32* %5, align 4
  %94 = sext i32 %93 to i64
  %95 = getelementptr inbounds [16 x i32], [16 x i32]* %92, i64 0, i64 %94
  %96 = load i32, i32* %95, align 4
  %97 = sitofp i32 %96 to double
  %98 = fmul double 1.000000e+00, %97
  %99 = load i32, i32* %6, align 4
  %100 = sext i32 %99 to i64
  %101 = getelementptr inbounds [100 x [16 x i32]], [100 x [16 x i32]]* %2, i64 0, i64 %100
  %102 = load i32, i32* %7, align 4
  %103 = sext i32 %102 to i64
  %104 = getelementptr inbounds [16 x i32], [16 x i32]* %101, i64 0, i64 %103
  %105 = load i32, i32* %104, align 4
  %106 = sitofp i32 %105 to double
  %107 = fmul double 1.000000e+00, %106
  %108 = fdiv double %98, %107
  %109 = fptrunc double %108 to float
  store float %109, float* %4, align 4
  %110 = load float, float* %4, align 4
  %111 = fcmp oeq float %110, 2.000000e+00
  br i1 %111, label %112, label %121

112:                                              ; preds = %89
  %113 = load i32, i32* %6, align 4
  %114 = sext i32 %113 to i64
  %115 = getelementptr inbounds [100 x i32], [100 x i32]* %3, i64 0, i64 %114
  %116 = load i32, i32* %115, align 4
  %117 = add nsw i32 %116, 1
  %118 = load i32, i32* %6, align 4
  %119 = sext i32 %118 to i64
  %120 = getelementptr inbounds [100 x i32], [100 x i32]* %3, i64 0, i64 %119
  store i32 %117, i32* %120, align 4
  br label %121

121:                                              ; preds = %112, %89
  br label %122

122:                                              ; preds = %121
  %123 = load i32, i32* %7, align 4
  %124 = add nsw i32 %123, 1
  store i32 %124, i32* %7, align 4
  br label %76

125:                                              ; preds = %88, %76
  br label %126

126:                                              ; preds = %125
  %127 = load i32, i32* %5, align 4
  %128 = add nsw i32 %127, 1
  store i32 %128, i32* %5, align 4
  br label %62

129:                                              ; preds = %74, %62
  %130 = load i32, i32* %6, align 4
  %131 = sext i32 %130 to i64
  %132 = getelementptr inbounds [100 x i32], [100 x i32]* %3, i64 0, i64 %131
  %133 = load i32, i32* %132, align 4
  %134 = call i32 (i8*, ...) @printf(i8* getelementptr inbounds ([4 x i8], [4 x i8]* @.str.1, i64 0, i64 0), i32 %133)
  br label %135

135:                                              ; preds = %129, %54
  %136 = load i32, i32* %6, align 4
  %137 = sext i32 %136 to i64
  %138 = getelementptr inbounds [100 x [16 x i32]], [100 x [16 x i32]]* %2, i64 0, i64 %137
  %139 = getelementptr inbounds [16 x i32], [16 x i32]* %138, i64 0, i64 0
  %140 = load i32, i32* %139, align 16
  %141 = icmp eq i32 %140, -1
  br i1 %141, label %142, label %143

142:                                              ; preds = %135
  br label %147

143:                                              ; preds = %135
  br label %144

144:                                              ; preds = %143
  %145 = load i32, i32* %6, align 4
  %146 = add nsw i32 %145, 1
  store i32 %146, i32* %6, align 4
  br label %51

147:                                              ; preds = %142, %51
  ret i32 0
}

; Function Attrs: argmemonly nounwind willreturn
declare void @llvm.memset.p0i8.i64(i8* nocapture writeonly, i8, i64, i1 immarg) #1

declare dso_local i32 @__isoc99_scanf(i8*, ...) #2

declare dso_local i32 @printf(i8*, ...) #2


!llvm.module.flags = !{!0}
!llvm.ident = !{!1}

!0 = !{i32 1, !"wchar_size", i32 4}
!1 = !{!"clang version 10.0.0-4ubuntu1 "}
